target datalayout = "e-m:e-p270:32:32-p271:32:32-p272:64:64-i64:64-i128:128-f80:128-n8:16:32:64-S128"
target triple = "x86_64-pc-linux-gnu"

%class.GrowableArrayBase = type { i32, i32 }
%class.GrowableArrayMetadata = type { i64 }
%"class.ciTypeFlow::LocalSet" = type { i64 }
%"class.ciTypeFlow::Block" = type { ptr, ptr, ptr, ptr, %class.GrowableArray.0, ptr, ptr, i32, i32, i32, i32, i8, i8, i8, i8, i8, ptr, ptr, ptr }
%class.GrowableArray.0 = type { %class.GrowableArrayWithAllocator.1, %class.GrowableArrayMetadata }
%class.GrowableArrayWithAllocator.1 = type { %class.GrowableArrayView.2 }
%class.GrowableArrayView.2 = type { %class.GrowableArrayBase, ptr }
%"class.ciTypeFlow::SuccIter" = type { ptr, i32, ptr }
%"class.ciTypeFlow::Loop" = type <{ ptr, ptr, ptr, ptr, ptr, i8, [7 x i8], %"class.ciTypeFlow::LocalSet", i32, [4 x i8] }>

; Function Attrs: mustprogress nounwind uwtable
define linkonce_odr hidden noundef ptr @_ZNK10ciTypeFlow4Loop6parentEv(ptr noundef nonnull align 8 dereferenceable(60) %0) #1 comdat align 2 {
  %2 = alloca ptr, align 8
  store ptr %0, ptr %2, align 8
  %3 = load ptr, ptr %2, align 8
  %4 = getelementptr inbounds %"class.ciTypeFlow::Loop", ptr %3, i32 0, i32 0
  %5 = load ptr, ptr %4, align 8
  ret ptr %5
}

; Function Attrs: mustprogress nounwind uwtable
define hidden noundef i32 @_ZNK10ciTypeFlow4Loop5depthEv(ptr noundef nonnull align 8 dereferenceable(60) %0) #1 align 2 {
  %2 = alloca ptr, align 8
  %3 = alloca i32, align 4
  %4 = alloca ptr, align 8
  store ptr %0, ptr %2, align 8
  %5 = load ptr, ptr %2, align 8
  store i32 0, ptr %3, align 4
  %6 = call noundef ptr @_ZNK10ciTypeFlow4Loop6parentEv(ptr noundef nonnull align 8 dereferenceable(60) %5)
  store ptr %6, ptr %4, align 8
  br label %7

7:                                                ; preds = %13, %1
  %8 = load ptr, ptr %4, align 8
  %9 = icmp ne ptr %8, null
  br i1 %9, label %10, label %16

10:                                               ; preds = %7
  %11 = load i32, ptr %3, align 4
  %12 = add nsw i32 %11, 1
  store i32 %12, ptr %3, align 4
  br label %13

13:                                               ; preds = %10
  %14 = load ptr, ptr %4, align 8
  %15 = call noundef ptr @_ZNK10ciTypeFlow4Loop6parentEv(ptr noundef nonnull align 8 dereferenceable(60) %14)
  store ptr %15, ptr %4, align 8
  br label %7, !llvm.loop !55

16:                                               ; preds = %7
  %17 = load i32, ptr %3, align 4
  ret i32 %17
}

; Function Attrs: mustprogress nounwind uwtable
define linkonce_odr hidden noundef ptr @_ZNK10ciTypeFlow4Loop4headEv(ptr noundef nonnull align 8 dereferenceable(60) %0) #1 comdat align 2 {
  %2 = alloca ptr, align 8
  store ptr %0, ptr %2, align 8
  %3 = load ptr, ptr %2, align 8
  %4 = getelementptr inbounds %"class.ciTypeFlow::Loop", ptr %3, i32 0, i32 3
  %5 = load ptr, ptr %4, align 8
  ret ptr %5
}

; Function Attrs: mustprogress nounwind uwtable
define linkonce_odr hidden noundef i32 @_ZNK17GrowableArrayBase6lengthEv(ptr noundef nonnull align 4 dereferenceable(8) %0) #1 comdat align 2 {
  %2 = alloca ptr, align 8
  store ptr %0, ptr %2, align 8
  %3 = load ptr, ptr %2, align 8
  %4 = getelementptr inbounds %class.GrowableArrayBase, ptr %3, i32 0, i32 0
  %5 = load i32, ptr %4, align 4
  ret i32 %5
}

; Function Attrs: mustprogress nounwind uwtable
define linkonce_odr hidden noundef ptr @_ZN10ciTypeFlow5Block10successorsEv(ptr noundef nonnull align 8 dereferenceable(120) %0) #1 comdat align 2 {
  %2 = alloca ptr, align 8
  store ptr %0, ptr %2, align 8
  %3 = load ptr, ptr %2, align 8
  %4 = getelementptr inbounds %"class.ciTypeFlow::Block", ptr %3, i32 0, i32 3
  %5 = load ptr, ptr %4, align 8
  ret ptr %5
}

; Function Attrs: mustprogress nounwind uwtable
define linkonce_odr hidden noundef i32 @_ZN10ciTypeFlow8SuccIter5indexEv(ptr noundef nonnull align 8 dereferenceable(24) %0) #1 comdat align 2 {
  %2 = alloca ptr, align 8
  store ptr %0, ptr %2, align 8
  %3 = load ptr, ptr %2, align 8
  %4 = getelementptr inbounds %"class.ciTypeFlow::SuccIter", ptr %3, i32 0, i32 1
  %5 = load i32, ptr %4, align 8
  ret i32 %5
}

; Function Attrs: mustprogress nounwind uwtable
define hidden noundef zeroext i1 @_ZNK10ciTypeFlow4Loop8containsEPS0_(ptr noundef nonnull align 8 dereferenceable(60) %0, ptr noundef %1) #1 align 2 {
  %3 = alloca i1, align 1
  %4 = alloca ptr, align 8
  %5 = alloca ptr, align 8
  %6 = alloca i32, align 4
  %7 = alloca i32, align 4
  store ptr %0, ptr %4, align 8
  store ptr %1, ptr %5, align 8
  %8 = load ptr, ptr %4, align 8
  %9 = load ptr, ptr %5, align 8
  %10 = icmp eq ptr %8, %9
  br i1 %10, label %16, label %11

11:                                               ; preds = %2
  %12 = call noundef ptr @_ZNK10ciTypeFlow4Loop4headEv(ptr noundef nonnull align 8 dereferenceable(60) %8)
  %13 = load ptr, ptr %5, align 8
  %14 = call noundef ptr @_ZNK10ciTypeFlow4Loop4headEv(ptr noundef nonnull align 8 dereferenceable(60) %13)
  %15 = icmp eq ptr %12, %14
  br i1 %15, label %16, label %17

16:                                               ; preds = %11, %2
  store i1 true, ptr %3, align 1
  br label %38

17:                                               ; preds = %11
  %18 = call noundef i32 @_ZNK10ciTypeFlow4Loop5depthEv(ptr noundef nonnull align 8 dereferenceable(60) %8)
  store i32 %18, ptr %6, align 4
  %19 = load ptr, ptr %5, align 8
  %20 = call noundef i32 @_ZNK10ciTypeFlow4Loop5depthEv(ptr noundef nonnull align 8 dereferenceable(60) %19)
  store i32 %20, ptr %7, align 4
  %21 = load i32, ptr %6, align 4
  %22 = load i32, ptr %7, align 4
  %23 = icmp sgt i32 %21, %22
  br i1 %23, label %24, label %25

24:                                               ; preds = %17
  store i1 false, ptr %3, align 1
  br label %38

25:                                               ; preds = %17
  br label %26

26:                                               ; preds = %30, %25
  %27 = load i32, ptr %6, align 4
  %28 = load i32, ptr %7, align 4
  %29 = icmp slt i32 %27, %28
  br i1 %29, label %30, label %35

30:                                               ; preds = %26
  %31 = load i32, ptr %7, align 4
  %32 = add nsw i32 %31, -1
  store i32 %32, ptr %7, align 4
  %33 = load ptr, ptr %5, align 8
  %34 = call noundef ptr @_ZNK10ciTypeFlow4Loop6parentEv(ptr noundef nonnull align 8 dereferenceable(60) %33)
  store ptr %34, ptr %5, align 8
  br label %26, !llvm.loop !33

35:                                               ; preds = %26
  %36 = load ptr, ptr %5, align 8
  %37 = icmp eq ptr %8, %36
  store i1 %37, ptr %3, align 1
  br label %38

38:                                               ; preds = %35, %24, %16
  %39 = load i1, ptr %3, align 1
  ret i1 %39
}

; Function Attrs: mustprogress nounwind uwtable
define linkonce_odr hidden noundef ptr @_ZNK10ciTypeFlow5Block4loopEv(ptr noundef nonnull align 8 dereferenceable(120) %0) #1 comdat align 2 {
  %2 = alloca ptr, align 8
  store ptr %0, ptr %2, align 8
  %3 = load ptr, ptr %2, align 8
  %4 = getelementptr inbounds %"class.ciTypeFlow::Block", ptr %3, i32 0, i32 18
  %5 = load ptr, ptr %4, align 8
  ret ptr %5
}

; Function Attrs: mustprogress nounwind uwtable
define linkonce_odr hidden noundef zeroext i1 @_ZN10ciTypeFlow8SuccIter14is_normal_ctrlEv(ptr noundef nonnull align 8 dereferenceable(24) %0) #1 comdat align 2 {
  %2 = alloca ptr, align 8
  store ptr %0, ptr %2, align 8
  %3 = load ptr, ptr %2, align 8
  %4 = call noundef i32 @_ZN10ciTypeFlow8SuccIter5indexEv(ptr noundef nonnull align 8 dereferenceable(24) %3)
  %5 = getelementptr inbounds %"class.ciTypeFlow::SuccIter", ptr %3, i32 0, i32 0
  %6 = load ptr, ptr %5, align 8
  %7 = call noundef ptr @_ZN10ciTypeFlow5Block10successorsEv(ptr noundef nonnull align 8 dereferenceable(120) %6)
  %8 = call noundef i32 @_ZNK17GrowableArrayBase6lengthEv(ptr noundef nonnull align 4 dereferenceable(8) %7)
  %9 = icmp slt i32 %4, %8
  ret i1 %9
}

; Function Attrs: mustprogress nounwind uwtable
define linkonce_odr hidden noundef ptr @_ZN10ciTypeFlow8SuccIter4succEv(ptr noundef nonnull align 8 dereferenceable(24) %0) #1 comdat align 2 {
  %2 = alloca ptr, align 8
  store ptr %0, ptr %2, align 8
  %3 = load ptr, ptr %2, align 8
  %4 = getelementptr inbounds %"class.ciTypeFlow::SuccIter", ptr %3, i32 0, i32 2
  %5 = load ptr, ptr %4, align 8
  ret ptr %5
}

; Function Attrs: mustprogress nounwind uwtable
define linkonce_odr hidden noundef zeroext i1 @_ZN10ciTypeFlow8SuccIter4doneEv(ptr noundef nonnull align 8 dereferenceable(24) %0) #1 comdat align 2 {
  %2 = alloca ptr, align 8
  store ptr %0, ptr %2, align 8
  %3 = load ptr, ptr %2, align 8
  %4 = getelementptr inbounds %"class.ciTypeFlow::SuccIter", ptr %3, i32 0, i32 1
  %5 = load i32, ptr %4, align 8
  %6 = icmp slt i32 %5, 0
  ret i1 %6
}

; Function Attrs: mustprogress nounwind uwtable
define linkonce_odr hidden void @_ZN10ciTypeFlow8SuccIterC2EPNS_5BlockE(ptr noundef nonnull align 8 dereferenceable(24) %0, ptr noundef %1) unnamed_addr #1 comdat align 2 {
  %3 = alloca ptr, align 8
  %4 = alloca ptr, align 8
  store ptr %0, ptr %3, align 8
  store ptr %1, ptr %4, align 8
  %5 = load ptr, ptr %3, align 8
  %6 = getelementptr inbounds %"class.ciTypeFlow::SuccIter", ptr %5, i32 0, i32 0
  %7 = load ptr, ptr %4, align 8
  store ptr %7, ptr %6, align 8
  %8 = getelementptr inbounds %"class.ciTypeFlow::SuccIter", ptr %5, i32 0, i32 1
  store i32 -1, ptr %8, align 8
  %9 = getelementptr inbounds %"class.ciTypeFlow::SuccIter", ptr %5, i32 0, i32 2
  store ptr null, ptr %9, align 8
  call void @_ZN10ciTypeFlow8SuccIter4nextEv(ptr noundef nonnull align 8 dereferenceable(24) %5)
  ret void
}

; Function Attrs: mustprogress nounwind uwtable
define hidden noundef zeroext i1 @_ZN10ciTypeFlow5Block16is_clonable_exitEPNS_4LoopE(ptr noundef nonnull align 8 dereferenceable(120) %0, ptr noundef %1) #1 align 2 {
  %3 = alloca i1, align 1
  %4 = alloca ptr, align 8
  %5 = alloca ptr, align 8
  %6 = alloca i32, align 4
  %7 = alloca i32, align 4
  %8 = alloca %"class.ciTypeFlow::SuccIter", align 8
  %9 = alloca ptr, align 8
  store ptr %0, ptr %4, align 8
  store ptr %1, ptr %5, align 8
  %10 = load ptr, ptr %4, align 8
  store i32 0, ptr %6, align 4
  store i32 0, ptr %7, align 4
  call void @_ZN10ciTypeFlow8SuccIterC2EPNS_5BlockE(ptr noundef nonnull align 8 dereferenceable(24) %8, ptr noundef %10)
  br label %11

11:                                               ; preds = %42, %2
  %12 = call noundef zeroext i1 @_ZN10ciTypeFlow8SuccIter4doneEv(ptr noundef nonnull align 8 dereferenceable(24) %8)
  %13 = xor i1 %12, true
  br i1 %13, label %14, label %43

14:                                               ; preds = %11
  %15 = call noundef ptr @_ZN10ciTypeFlow8SuccIter4succEv(ptr noundef nonnull align 8 dereferenceable(24) %8)
  store ptr %15, ptr %9, align 8
  %16 = call noundef zeroext i1 @_ZN10ciTypeFlow8SuccIter14is_normal_ctrlEv(ptr noundef nonnull align 8 dereferenceable(24) %8)
  br i1 %16, label %17, label %34

17:                                               ; preds = %14
  %18 = load i32, ptr %6, align 4
  %19 = add nsw i32 %18, 1
  store i32 %19, ptr %6, align 4
  %20 = icmp sgt i32 %19, 2
  br i1 %20, label %21, label %22

21:                                               ; preds = %17
  store i1 false, ptr %3, align 1
  br label %46

22:                                               ; preds = %17
  %23 = load ptr, ptr %5, align 8
  %24 = load ptr, ptr %9, align 8
  %25 = call noundef ptr @_ZNK10ciTypeFlow5Block4loopEv(ptr noundef nonnull align 8 dereferenceable(120) %24)
  %26 = call noundef zeroext i1 @_ZNK10ciTypeFlow4Loop8containsEPS0_(ptr noundef nonnull align 8 dereferenceable(60) %23, ptr noundef %25)
  br i1 %26, label %27, label %33

27:                                               ; preds = %22
  %28 = load i32, ptr %7, align 4
  %29 = add nsw i32 %28, 1
  store i32 %29, ptr %7, align 4
  %30 = icmp sgt i32 %29, 1
  br i1 %30, label %31, label %32

31:                                               ; preds = %27
  store i1 false, ptr %3, align 1
  br label %46

32:                                               ; preds = %27
  br label %33

33:                                               ; preds = %32, %22
  br label %41

34:                                               ; preds = %14
  %35 = load ptr, ptr %5, align 8
  %36 = load ptr, ptr %9, align 8
  %37 = call noundef ptr @_ZNK10ciTypeFlow5Block4loopEv(ptr noundef nonnull align 8 dereferenceable(120) %36)
  %38 = call noundef zeroext i1 @_ZNK10ciTypeFlow4Loop8containsEPS0_(ptr noundef nonnull align 8 dereferenceable(60) %35, ptr noundef %37)
  br i1 %38, label %39, label %40

39:                                               ; preds = %34
  store i1 false, ptr %3, align 1
  br label %46

40:                                               ; preds = %34
  br label %41

41:                                               ; preds = %40, %33
  br label %42

42:                                               ; preds = %41
  call void @_ZN10ciTypeFlow8SuccIter4nextEv(ptr noundef nonnull align 8 dereferenceable(24) %8)
  br label %11, !llvm.loop !32

43:                                               ; preds = %11
  %44 = load i32, ptr %7, align 4
  %45 = icmp eq i32 %44, 1
  store i1 %45, ptr %3, align 1
  br label %46

46:                                               ; preds = %43, %39, %31, %21
  %47 = load i1, ptr %3, align 1
  ret i1 %47
}