; Function Attrs: mustprogress nounwind uwtable
define hidden noundef zeroext i1 @_ZN10ciTypeFlow5Block16is_clonable_exitEPNS_4LoopE(ptr noundef nonnull align 8 dereferenceable(120) %0, ptr noundef readonly %1) local_unnamed_addr #0 align 2 {
  %3 = alloca %"class.ciTypeFlow::SuccIter", align 8
  store ptr %0, ptr %3, align 8
  %4 = getelementptr inbounds i8, ptr %3, i64 8
  store i32 -1, ptr %4, align 8
  %5 = getelementptr inbounds i8, ptr %3, i64 16
  store ptr null, ptr %5, align 8
  call void @_ZN10ciTypeFlow8SuccIter4nextEv(ptr noundef nonnull align 8 dereferenceable(24) %3)
  %6 = load i32, ptr %4, align 8
  %7 = icmp slt i32 %6, 0
  br i1 %7, label %_ZNK10ciTypeFlow4Loop8containsEPS0_.exit32.thread, label %.lr.ph

.lr.ph:                                           ; preds = %2
  %8 = getelementptr inbounds i8, ptr %1, i64 24
  br label %9

9:                                                ; preds = %.lr.ph, %_ZNK10ciTypeFlow4Loop8containsEPS0_.exit.thread34
  %10 = phi i32 [ %6, %.lr.ph ], [ %55, %_ZNK10ciTypeFlow4Loop8containsEPS0_.exit.thread34 ]
  %.0842 = phi i32 [ 0, %.lr.ph ], [ %.1, %_ZNK10ciTypeFlow4Loop8containsEPS0_.exit.thread34 ]
  %.0941 = phi i32 [ 0, %.lr.ph ], [ %.110, %_ZNK10ciTypeFlow4Loop8containsEPS0_.exit.thread34 ]
  %11 = load ptr, ptr %5, align 8
  %12 = load ptr, ptr %3, align 8
  %13 = getelementptr inbounds i8, ptr %12, i64 24
  %14 = load ptr, ptr %13, align 8
  %15 = load i32, ptr %14, align 4
  %16 = icmp slt i32 %10, %15
  br i1 %16, label %17, label %38

17:                                               ; preds = %9
  %18 = add nuw nsw i32 %.0941, 1
  %19 = icmp sgt i32 %.0941, 1
  br i1 %19, label %_ZNK10ciTypeFlow4Loop8containsEPS0_.exit32.thread, label %20

20:                                               ; preds = %17
  %21 = getelementptr inbounds i8, ptr %11, i64 112
  %22 = load ptr, ptr %21, align 8
  %23 = icmp eq ptr %22, %1
  br i1 %23, label %_ZNK10ciTypeFlow4Loop8containsEPS0_.exit.thread, label %24

24:                                               ; preds = %20
  %25 = load ptr, ptr %8, align 8
  %26 = getelementptr inbounds i8, ptr %22, i64 24
  %27 = load ptr, ptr %26, align 8
  %28 = icmp eq ptr %25, %27
  br i1 %28, label %_ZNK10ciTypeFlow4Loop8containsEPS0_.exit.thread, label %.preheader21.i

.preheader21.i:                                   ; preds = %24, %.preheader21.i
  %.04.i.i = phi i32 [ %29, %.preheader21.i ], [ 0, %24 ]
  %.0.in.i.i = phi ptr [ %.0.i.i, %.preheader21.i ], [ %1, %24 ]
  %.0.i.i = load ptr, ptr %.0.in.i.i, align 8
  %.not.i.i = icmp eq ptr %.0.i.i, null
  %29 = add nuw nsw i32 %.04.i.i, 1
  br i1 %.not.i.i, label %_ZNK10ciTypeFlow4Loop5depthEv.exit.i, label %.preheader21.i, !llvm.loop !33

_ZNK10ciTypeFlow4Loop5depthEv.exit.i:             ; preds = %.preheader21.i, %_ZNK10ciTypeFlow4Loop5depthEv.exit.i
  %.04.i16.i = phi i32 [ %30, %_ZNK10ciTypeFlow4Loop5depthEv.exit.i ], [ 0, %.preheader21.i ]
  %.0.in.i17.i = phi ptr [ %.0.i18.i, %_ZNK10ciTypeFlow4Loop5depthEv.exit.i ], [ %22, %.preheader21.i ]
  %.0.i18.i = load ptr, ptr %.0.in.i17.i, align 8
  %.not.i19.i = icmp eq ptr %.0.i18.i, null
  %30 = add nuw nsw i32 %.04.i16.i, 1
  br i1 %.not.i19.i, label %_ZNK10ciTypeFlow4Loop5depthEv.exit20.i, label %_ZNK10ciTypeFlow4Loop5depthEv.exit.i, !llvm.loop !33

_ZNK10ciTypeFlow4Loop5depthEv.exit20.i:           ; preds = %_ZNK10ciTypeFlow4Loop5depthEv.exit.i
  %31 = icmp ugt i32 %.04.i.i, %.04.i16.i
  br i1 %31, label %_ZNK10ciTypeFlow4Loop8containsEPS0_.exit.thread34, label %.preheader.i

.preheader.i:                                     ; preds = %_ZNK10ciTypeFlow4Loop5depthEv.exit20.i
  %32 = icmp ult i32 %.04.i.i, %.04.i16.i
  br i1 %32, label %.lr.ph.i, label %_ZNK10ciTypeFlow4Loop8containsEPS0_.exit

.lr.ph.i:                                         ; preds = %.preheader.i, %.lr.ph.i
  %.023.i = phi i32 [ %33, %.lr.ph.i ], [ %.04.i16.i, %.preheader.i ]
  %.01222.i = phi ptr [ %34, %.lr.ph.i ], [ %22, %.preheader.i ]
  %33 = add nsw i32 %.023.i, -1
  %34 = load ptr, ptr %.01222.i, align 8
  %35 = icmp slt i32 %.04.i.i, %33
  br i1 %35, label %.lr.ph.i, label %_ZNK10ciTypeFlow4Loop8containsEPS0_.exit, !llvm.loop !34

_ZNK10ciTypeFlow4Loop8containsEPS0_.exit:         ; preds = %.lr.ph.i, %.preheader.i
  %.012.lcssa.i = phi ptr [ %22, %.preheader.i ], [ %34, %.lr.ph.i ]
  %36 = icmp eq ptr %.012.lcssa.i, %1
  br i1 %36, label %_ZNK10ciTypeFlow4Loop8containsEPS0_.exit.thread, label %_ZNK10ciTypeFlow4Loop8containsEPS0_.exit.thread34

_ZNK10ciTypeFlow4Loop8containsEPS0_.exit.thread:  ; preds = %20, %24, %_ZNK10ciTypeFlow4Loop8containsEPS0_.exit
  %37 = icmp sgt i32 %.0842, 0
  br i1 %37, label %_ZNK10ciTypeFlow4Loop8containsEPS0_.exit32.thread, label %_ZNK10ciTypeFlow4Loop8containsEPS0_.exit.thread34

38:                                               ; preds = %9
  %39 = getelementptr inbounds i8, ptr %11, i64 112
  %40 = load ptr, ptr %39, align 8
  %41 = icmp eq ptr %40, %1
  br i1 %41, label %_ZNK10ciTypeFlow4Loop8containsEPS0_.exit32.thread, label %42

42:                                               ; preds = %38
  %43 = load ptr, ptr %8, align 8
  %44 = getelementptr inbounds i8, ptr %40, i64 24
  %45 = load ptr, ptr %44, align 8
  %46 = icmp eq ptr %43, %45
  br i1 %46, label %_ZNK10ciTypeFlow4Loop8containsEPS0_.exit32.thread, label %.preheader21.i13

.preheader21.i13:                                 ; preds = %42, %.preheader21.i13
  %.04.i.i14 = phi i32 [ %47, %.preheader21.i13 ], [ 0, %42 ]
  %.0.in.i.i15 = phi ptr [ %.0.i.i16, %.preheader21.i13 ], [ %1, %42 ]
  %.0.i.i16 = load ptr, ptr %.0.in.i.i15, align 8
  %.not.i.i17 = icmp eq ptr %.0.i.i16, null
  %47 = add nuw nsw i32 %.04.i.i14, 1
  br i1 %.not.i.i17, label %_ZNK10ciTypeFlow4Loop5depthEv.exit.i19, label %.preheader21.i13, !llvm.loop !33

_ZNK10ciTypeFlow4Loop5depthEv.exit.i19:           ; preds = %.preheader21.i13, %_ZNK10ciTypeFlow4Loop5depthEv.exit.i19
  %.04.i16.i20 = phi i32 [ %48, %_ZNK10ciTypeFlow4Loop5depthEv.exit.i19 ], [ 0, %.preheader21.i13 ]
  %.0.in.i17.i21 = phi ptr [ %.0.i18.i22, %_ZNK10ciTypeFlow4Loop5depthEv.exit.i19 ], [ %40, %.preheader21.i13 ]
  %.0.i18.i22 = load ptr, ptr %.0.in.i17.i21, align 8
  %.not.i19.i23 = icmp eq ptr %.0.i18.i22, null
  %48 = add nuw nsw i32 %.04.i16.i20, 1
  br i1 %.not.i19.i23, label %_ZNK10ciTypeFlow4Loop5depthEv.exit20.i24, label %_ZNK10ciTypeFlow4Loop5depthEv.exit.i19, !llvm.loop !33

_ZNK10ciTypeFlow4Loop5depthEv.exit20.i24:         ; preds = %_ZNK10ciTypeFlow4Loop5depthEv.exit.i19
  %49 = icmp ugt i32 %.04.i.i14, %.04.i16.i20
  br i1 %49, label %_ZNK10ciTypeFlow4Loop8containsEPS0_.exit.thread34, label %.preheader.i25

.preheader.i25:                                   ; preds = %_ZNK10ciTypeFlow4Loop5depthEv.exit20.i24
  %50 = icmp ult i32 %.04.i.i14, %.04.i16.i20
  br i1 %50, label %.lr.ph.i29, label %_ZNK10ciTypeFlow4Loop8containsEPS0_.exit32

.lr.ph.i29:                                       ; preds = %.preheader.i25, %.lr.ph.i29
  %.023.i30 = phi i32 [ %51, %.lr.ph.i29 ], [ %.04.i16.i20, %.preheader.i25 ]
  %.01222.i31 = phi ptr [ %52, %.lr.ph.i29 ], [ %40, %.preheader.i25 ]
  %51 = add nsw i32 %.023.i30, -1
  %52 = load ptr, ptr %.01222.i31, align 8
  %53 = icmp slt i32 %.04.i.i14, %51
  br i1 %53, label %.lr.ph.i29, label %_ZNK10ciTypeFlow4Loop8containsEPS0_.exit32, !llvm.loop !34

_ZNK10ciTypeFlow4Loop8containsEPS0_.exit32:       ; preds = %.lr.ph.i29, %.preheader.i25
  %.012.lcssa.i27 = phi ptr [ %40, %.preheader.i25 ], [ %52, %.lr.ph.i29 ]
  %54 = icmp eq ptr %.012.lcssa.i27, %1
  br i1 %54, label %_ZNK10ciTypeFlow4Loop8containsEPS0_.exit32.thread, label %_ZNK10ciTypeFlow4Loop8containsEPS0_.exit.thread34

_ZNK10ciTypeFlow4Loop8containsEPS0_.exit.thread34: ; preds = %_ZNK10ciTypeFlow4Loop5depthEv.exit20.i24, %_ZNK10ciTypeFlow4Loop5depthEv.exit20.i, %_ZNK10ciTypeFlow4Loop8containsEPS0_.exit.thread, %_ZNK10ciTypeFlow4Loop8containsEPS0_.exit, %_ZNK10ciTypeFlow4Loop8containsEPS0_.exit32
  %.110 = phi i32 [ %18, %_ZNK10ciTypeFlow4Loop8containsEPS0_.exit.thread ], [ %18, %_ZNK10ciTypeFlow4Loop8containsEPS0_.exit ], [ %.0941, %_ZNK10ciTypeFlow4Loop8containsEPS0_.exit32 ], [ %18, %_ZNK10ciTypeFlow4Loop5depthEv.exit20.i ], [ %.0941, %_ZNK10ciTypeFlow4Loop5depthEv.exit20.i24 ]
  %.1 = phi i32 [ 1, %_ZNK10ciTypeFlow4Loop8containsEPS0_.exit.thread ], [ %.0842, %_ZNK10ciTypeFlow4Loop8containsEPS0_.exit ], [ %.0842, %_ZNK10ciTypeFlow4Loop8containsEPS0_.exit32 ], [ %.0842, %_ZNK10ciTypeFlow4Loop5depthEv.exit20.i ], [ %.0842, %_ZNK10ciTypeFlow4Loop5depthEv.exit20.i24 ]
  call void @_ZN10ciTypeFlow8SuccIter4nextEv(ptr noundef nonnull align 8 dereferenceable(24) %3)
  %55 = load i32, ptr %4, align 8
  %56 = icmp slt i32 %55, 0
  br i1 %56, label %._crit_edge.loopexit, label %9, !llvm.loop !35

._crit_edge.loopexit:                             ; preds = %_ZNK10ciTypeFlow4Loop8containsEPS0_.exit.thread34
  %57 = icmp eq i32 %.1, 1
  br label %_ZNK10ciTypeFlow4Loop8containsEPS0_.exit32.thread

_ZNK10ciTypeFlow4Loop8containsEPS0_.exit32.thread: ; preds = %38, %42, %_ZNK10ciTypeFlow4Loop8containsEPS0_.exit32, %_ZNK10ciTypeFlow4Loop8containsEPS0_.exit.thread, %17, %2, %._crit_edge.loopexit
  %.0 = phi i1 [ false, %2 ], [ %57, %._crit_edge.loopexit ], [ false, %17 ], [ false, %_ZNK10ciTypeFlow4Loop8containsEPS0_.exit.thread ], [ false, %_ZNK10ciTypeFlow4Loop8containsEPS0_.exit32 ], [ false, %42 ], [ false, %38 ]
  ret i1 %.0
}